; Listing generated by Microsoft (R) Optimizing Compiler Version 19.44.35209.0 

include listing.inc

INCLUDELIB LIBCMT
INCLUDELIB OLDNAMES

PUBLIC	__local_stdio_printf_options
PUBLIC	_vfprintf_l
PUBLIC	printf
PUBLIC	main
PUBLIC	??_C@_08FHAGDDAI@int32_t?6@			; `string'
PUBLIC	??_C@_03PPOCCAPH@?$CFf?6@			; `string'
PUBLIC	??_C@_09ECOFABAM@uint32_t?6@			; `string'
PUBLIC	__real@412e848000000000
PUBLIC	__xmm@00000003000000020000000100000000
EXTRN	__imp_QueryPerformanceCounter:PROC
EXTRN	__imp_QueryPerformanceFrequency:PROC
EXTRN	_aligned_free:PROC
EXTRN	_aligned_malloc:PROC
EXTRN	srand:PROC
EXTRN	rand:PROC
EXTRN	__acrt_iob_func:PROC
EXTRN	__stdio_common_vfprintf:PROC
EXTRN	_time64:PROC
EXTRN	_fltused:DWORD
_DATA	SEGMENT
COMM	?_OptionsStorage@?1??__local_stdio_printf_options@@9@9:QWORD							; `__local_stdio_printf_options'::`2'::_OptionsStorage
_DATA	ENDS
;	COMDAT pdata
pdata	SEGMENT
$pdata$_vfprintf_l DD imagerel $LN4
	DD	imagerel $LN4+80
	DD	imagerel $unwind$_vfprintf_l
pdata	ENDS
;	COMDAT pdata
pdata	SEGMENT
$pdata$printf DD imagerel $LN6
	DD	imagerel $LN6+83
	DD	imagerel $unwind$printf
pdata	ENDS
;	COMDAT pdata
pdata	SEGMENT
$pdata$main DD	imagerel $LN131
	DD	imagerel $LN131+1297
	DD	imagerel $unwind$main
pdata	ENDS
;	COMDAT __xmm@00000003000000020000000100000000
CONST	SEGMENT
__xmm@00000003000000020000000100000000 DB 00H, 00H, 00H, 00H, 01H, 00H, 00H
	DB	00H, 02H, 00H, 00H, 00H, 03H, 00H, 00H, 00H
CONST	ENDS
;	COMDAT __real@412e848000000000
CONST	SEGMENT
__real@412e848000000000 DQ 0412e848000000000r	; 1e+06
CONST	ENDS
;	COMDAT ??_C@_09ECOFABAM@uint32_t?6@
CONST	SEGMENT
??_C@_09ECOFABAM@uint32_t?6@ DB 'uint32_t', 0aH, 00H	; `string'
CONST	ENDS
;	COMDAT ??_C@_03PPOCCAPH@?$CFf?6@
CONST	SEGMENT
??_C@_03PPOCCAPH@?$CFf?6@ DB '%f', 0aH, 00H		; `string'
CONST	ENDS
;	COMDAT ??_C@_08FHAGDDAI@int32_t?6@
CONST	SEGMENT
??_C@_08FHAGDDAI@int32_t?6@ DB 'int32_t', 0aH, 00H	; `string'
CONST	ENDS
;	COMDAT xdata
xdata	SEGMENT
$unwind$main DD	0d1d01H
	DD	02781dH
	DD	036816H
	DD	0f00d8211H
	DD	0d009e00bH
	DD	07005c007H
	DD	050036004H
	DD	03002H
xdata	ENDS
;	COMDAT xdata
xdata	SEGMENT
$unwind$printf DD 041b01H
	DD	07017521bH
	DD	030156016H
xdata	ENDS
;	COMDAT xdata
xdata	SEGMENT
$unwind$_vfprintf_l DD 081401H
	DD	0a6414H
	DD	095414H
	DD	083414H
	DD	070105214H
xdata	ENDS
; Function compile flags: /Ogtpy
; File C:\Users\Adminlocal\Desktop\Woah~\int-vs-uint-repo\windows_int_vs_uint.c
; File C:\Program Files (x86)\Windows Kits\10\include\10.0.22621.0\ucrt\time.h
; File C:\Users\Adminlocal\Desktop\Woah~\int-vs-uint-repo\windows_int_vs_uint.c
;	COMDAT main
_TEXT	SEGMENT
tf$1 = 144
tf$2 = 144
t0$3 = 152
t0$4 = 152
f$5 = 160
f$6 = 160
u_arr$1$ = 168
seconds_arr$1$ = 168
main	PROC						; COMDAT

; 132  : int main() {

$LN131:
	push	rbx
	push	rbp
	push	rsi
	push	rdi
	push	r12
	push	r13
	push	r14
	push	r15
	sub	rsp, 72					; 00000048H
	movaps	XMMWORD PTR [rsp+48], xmm6
; File C:\Program Files (x86)\Windows Kits\10\include\10.0.22621.0\ucrt\time.h

; 552  :             return _time64(_Time);

	xor	ecx, ecx
	movaps	XMMWORD PTR [rsp+32], xmm7
	call	_time64
; File C:\Users\Adminlocal\Desktop\Woah~\int-vs-uint-repo\windows_int_vs_uint.c

; 137  :     srand(time(NULL));

	mov	ecx, eax
	call	srand

; 138  : 
; 139  :     int32_t* s_arr = (int32_t*)(_aligned_malloc(LEN * sizeof(*s_arr), 64));

	mov	edx, 64					; 00000040H
	mov	ecx, 131072				; 00020000H
	call	_aligned_malloc

; 140  :     uint32_t* u_arr = (uint32_t*)(_aligned_malloc(LEN * sizeof(*u_arr), 64));

	mov	edx, 64					; 00000040H
	mov	ecx, 131072				; 00020000H
	mov	rbp, rax
	call	_aligned_malloc

; 141  : 
; 142  : #if defined(BASE)
; 143  :     PERFORMANCE_LOOP(int32_t, s_arr);

	lea	rcx, OFFSET FLAT:??_C@_08FHAGDDAI@int32_t?6@
	mov	QWORD PTR u_arr$1$[rsp], rax
	call	printf
	mov	edx, 64					; 00000040H
	mov	ecx, 131072				; 00020000H
	call	_aligned_malloc
	mov	edx, 64					; 00000040H
	mov	ecx, 262144				; 00040000H
	mov	r15, rax
	call	_aligned_malloc
	mov	r12, rax
	xor	edi, edi
	mov	ebx, 32768				; 00008000H
	npad	7
$LL4@main:
	call	rand
	mov	DWORD PTR [r15+rdi*4], eax
	inc	rdi
	cmp	rdi, rbx
	jl	SHORT $LL4@main
	lea	rcx, QWORD PTR f$5[rsp]
	call	QWORD PTR __imp_QueryPerformanceFrequency
	movdqa	xmm6, XMMWORD PTR __xmm@00000003000000020000000100000000
	lea	r13, QWORD PTR [rbp+131068]
	xor	esi, esi
	mov	rdi, r15
	sub	rdi, rbp
	npad	10
$LL7@main:
	lea	rcx, QWORD PTR t0$3[rsp]
	call	QWORD PTR __imp_QueryPerformanceCounter
	xor	r8d, r8d
	lea	rax, QWORD PTR [r15+131068]
	cmp	rbp, rax
	ja	SHORT $LN67@main
	cmp	r13, r15
	jb	SHORT $LN67@main
	mov	rdx, rbp
	mov	r9, rbx
	npad	8
$LL105@main:
	mov	ecx, DWORD PTR [rdi+rdx]
	lea	rdx, QWORD PTR [rdx+4]
	mov	eax, ecx
	sar	eax, 1
	sub	ecx, eax
	add	ecx, r8d
	inc	r8d
	mov	DWORD PTR [rdx-4], ecx
	sub	r9, 1
	jne	SHORT $LL105@main
	jmp	$LN9@main
$LN67@main:
	mov	edx, 8
	lea	rcx, QWORD PTR [rbp+16]
	npad	6
$LL10@main:
	movdqu	xmm2, XMMWORD PTR [rdi+rcx-16]
	lea	eax, DWORD PTR [rdx-4]
	movd	xmm1, r8d
	lea	rcx, QWORD PTR [rcx+64]
	pshufd	xmm1, xmm1, 0
	movdqa	xmm0, xmm2
	psrad	xmm0, 1
	paddd	xmm1, xmm6
	psubd	xmm2, xmm0
	add	r8d, 16
	paddd	xmm2, xmm1
	movdqu	xmm1, XMMWORD PTR [rdi+rcx-64]
	movdqu	XMMWORD PTR [rcx-80], xmm2
	movdqu	xmm2, XMMWORD PTR [rdi+rcx-48]
	movdqa	xmm0, xmm1
	psrad	xmm0, 1
	psubd	xmm1, xmm0
	movd	xmm0, eax
	pshufd	xmm0, xmm0, 0
	lea	eax, DWORD PTR [rdx+4]
	paddd	xmm0, xmm6
	paddd	xmm1, xmm0
	movdqa	xmm0, xmm2
	movdqu	XMMWORD PTR [rcx-64], xmm1
	psrad	xmm0, 1
	psubd	xmm2, xmm0
	movd	xmm1, edx
	pshufd	xmm1, xmm1, 0
	add	edx, 16
	paddd	xmm1, xmm6
	paddd	xmm2, xmm1
	movdqu	xmm1, XMMWORD PTR [rdi+rcx-32]
	movdqu	XMMWORD PTR [rcx-48], xmm2
	movdqa	xmm0, xmm1
	psrad	xmm0, 1
	psubd	xmm1, xmm0
	movd	xmm0, eax
	pshufd	xmm0, xmm0, 0
	paddd	xmm0, xmm6
	paddd	xmm1, xmm0
	movdqu	XMMWORD PTR [rcx-32], xmm1
	cmp	edx, 32776				; 00008008H
	jl	$LL10@main
$LN9@main:
	mov	r8d, 1
	lea	rcx, QWORD PTR [rbp+4]
	npad	4
$LL68@main:
	mov	eax, DWORD PTR [rcx-4]
	imul	eax, DWORD PTR [rcx]
	lea	rcx, QWORD PTR [rcx+4]
	cdq
	idiv	r8d
	inc	r8d
	mov	DWORD PTR [rcx-4], eax
	cmp	r8d, ebx
	jl	SHORT $LL68@main
	lea	rcx, QWORD PTR tf$1[rsp]
	call	QWORD PTR __imp_QueryPerformanceCounter
	mov	rax, QWORD PTR tf$1[rsp]
	xorps	xmm1, xmm1
	sub	rax, QWORD PTR t0$3[rsp]
	xorps	xmm0, xmm0
	cvtsi2sd xmm0, QWORD PTR f$5[rsp]
	cvtsi2sd xmm1, rax
	divsd	xmm1, xmm0
	movsd	QWORD PTR [r12+rsi*8], xmm1
	inc	rsi
	cmp	rsi, rbx
	jl	$LL7@main
	movsd	xmm6, QWORD PTR __real@412e848000000000
	xor	edi, edi
	mov	r14, QWORD PTR u_arr$1$[rsp]
	npad	12
$LL16@main:
	movsd	xmm1, QWORD PTR [r12+rdi*8]
	lea	rcx, OFFSET FLAT:??_C@_03PPOCCAPH@?$CFf?6@
	mulsd	xmm1, xmm6
	movq	rdx, xmm1
	call	printf
	inc	rdi
	cmp	rdi, rbx
	jl	SHORT $LL16@main
	mov	rcx, r15
	call	_aligned_free
	mov	rcx, r12
	call	_aligned_free

; 144  :     PERFORMANCE_LOOP(uint32_t, u_arr);

	lea	rcx, OFFSET FLAT:??_C@_09ECOFABAM@uint32_t?6@
	call	printf
	mov	edx, 64					; 00000040H
	mov	ecx, 131072				; 00020000H
	call	_aligned_malloc
	mov	edx, 64					; 00000040H
	mov	ecx, 262144				; 00040000H
	mov	rbp, rax
	call	_aligned_malloc
	mov	r15, rax
	mov	QWORD PTR seconds_arr$1$[rsp], rax
	mov	rdi, rbp
	mov	rsi, rbx
$LL19@main:
	call	rand
	mov	DWORD PTR [rdi], eax
	lea	rdi, QWORD PTR [rdi+4]
	sub	rsi, 1
	jne	SHORT $LL19@main
	lea	rcx, QWORD PTR f$6[rsp]
	call	QWORD PTR __imp_QueryPerformanceFrequency
	movdqa	xmm7, XMMWORD PTR __xmm@00000003000000020000000100000000
	lea	r12, QWORD PTR [r14+131068]
	mov	rdi, rbp
	lea	r13, QWORD PTR [rbp+131068]
	mov	rsi, r15
	sub	rdi, r14
	mov	r15, rbx
$LL22@main:
	lea	rcx, QWORD PTR t0$4[rsp]
	call	QWORD PTR __imp_QueryPerformanceCounter
	xor	r8d, r8d
	cmp	r14, r13
	ja	SHORT $LN72@main
	cmp	r12, rbp
	jb	SHORT $LN72@main
	mov	rdx, r14
$LL70@main:
	mov	ecx, DWORD PTR [rdi+rdx]
	lea	rdx, QWORD PTR [rdx+4]
	mov	eax, ecx
	shr	eax, 1
	sub	ecx, eax
	add	ecx, r8d
	inc	r8d
	mov	DWORD PTR [rdx-4], ecx
	cmp	r8d, ebx
	jb	SHORT $LL70@main
	jmp	$LN24@main
$LN72@main:
	mov	edx, 8
	lea	rcx, QWORD PTR [r14+16]
	npad	7
$LL25@main:
	movdqu	xmm1, XMMWORD PTR [rdi+rcx-16]
	lea	eax, DWORD PTR [rdx-8]
	movdqu	xmm2, XMMWORD PTR [rdi+rcx]
	lea	rcx, QWORD PTR [rcx+64]
	movdqa	xmm0, xmm1
	psrld	xmm0, 1
	psubd	xmm1, xmm0
	movd	xmm0, eax
	pshufd	xmm0, xmm0, 0
	lea	eax, DWORD PTR [rdx-4]
	paddd	xmm0, xmm7
	paddd	xmm1, xmm0
	movdqa	xmm0, xmm2
	psrld	xmm0, 1
	psubd	xmm2, xmm0
	movd	xmm0, eax
	movdqu	XMMWORD PTR [rcx-80], xmm1
	lea	eax, DWORD PTR [rdx+4]
	pshufd	xmm0, xmm0, 0
	paddd	xmm0, xmm7
	movd	xmm1, edx
	paddd	xmm2, xmm0
	pshufd	xmm1, xmm1, 0
	movdqu	XMMWORD PTR [rcx-64], xmm2
	add	edx, 16
	movdqu	xmm2, XMMWORD PTR [rdi+rcx-48]
	paddd	xmm1, xmm7
	movdqa	xmm0, xmm2
	psrld	xmm0, 1
	psubd	xmm2, xmm0
	paddd	xmm2, xmm1
	movdqu	xmm1, XMMWORD PTR [rdi+rcx-32]
	movdqu	XMMWORD PTR [rcx-48], xmm2
	movdqa	xmm0, xmm1
	psrld	xmm0, 1
	psubd	xmm1, xmm0
	movd	xmm0, eax
	pshufd	xmm0, xmm0, 0
	lea	eax, DWORD PTR [rdx-8]
	paddd	xmm0, xmm7
	paddd	xmm1, xmm0
	movdqu	XMMWORD PTR [rcx-32], xmm1
	cmp	eax, ebx
	jb	$LL25@main
$LN24@main:
	mov	ecx, 1
	lea	r8, QWORD PTR [r14+4]
	mov	r9, r14
	npad	6
$LL73@main:
	mov	eax, DWORD PTR [r8]
	lea	r8, QWORD PTR [r8+4]
	imul	eax, DWORD PTR [r9]
	lea	r9, QWORD PTR [r9+4]
	xor	edx, edx
	div	ecx
	inc	ecx
	mov	DWORD PTR [r8-4], eax
	cmp	ecx, ebx
	jb	SHORT $LL73@main
	lea	rcx, QWORD PTR tf$2[rsp]
	call	QWORD PTR __imp_QueryPerformanceCounter
	mov	rax, QWORD PTR tf$2[rsp]
	xorps	xmm1, xmm1
	sub	rax, QWORD PTR t0$4[rsp]
	xorps	xmm0, xmm0
	cvtsi2sd xmm0, QWORD PTR f$6[rsp]
	cvtsi2sd xmm1, rax
	divsd	xmm1, xmm0
	movsd	QWORD PTR [rsi], xmm1
	add	rsi, 8
	sub	r15, 1
	jne	$LL22@main
	mov	rsi, QWORD PTR seconds_arr$1$[rsp]
	mov	rdi, rsi
$LL31@main:
	movsd	xmm1, QWORD PTR [rdi]
	lea	rcx, OFFSET FLAT:??_C@_03PPOCCAPH@?$CFf?6@
	mulsd	xmm1, xmm6
	movq	rdx, xmm1
	call	printf
	lea	rdi, QWORD PTR [rdi+8]
	sub	rbx, 1
	jne	SHORT $LL31@main
	mov	rcx, rbp
	call	_aligned_free
	mov	rcx, rsi
	call	_aligned_free

; 145  : #elif defined(NODIV)
; 146  :     PERFORMANCE_LOOP_NODIV(int32_t, s_arr);
; 147  :     PERFORMANCE_LOOP_NODIV(uint32_t, u_arr);
; 148  : #elif defined(NODIVMULT)
; 149  :     PERFORMANCE_LOOP_NODIVMULT(int32_t, s_arr);
; 150  :     PERFORMANCE_LOOP_NODIVMULT(uint32_t, u_arr);
; 151  : #else
; 152  : #error ERROR
; 153  : #endif
; 154  : 
; 155  :     return 0;
; 156  : }

	movaps	xmm6, XMMWORD PTR [rsp+48]
	xor	eax, eax
	movaps	xmm7, XMMWORD PTR [rsp+32]
	add	rsp, 72					; 00000048H
	pop	r15
	pop	r14
	pop	r13
	pop	r12
	pop	rdi
	pop	rsi
	pop	rbp
	pop	rbx
	ret	0
main	ENDP
_TEXT	ENDS
; Function compile flags: /Ogtpy
; File C:\Program Files (x86)\Windows Kits\10\include\10.0.22621.0\ucrt\time.h
;	COMDAT time
_TEXT	SEGMENT
_Time$ = 8
time	PROC						; COMDAT

; 552  :             return _time64(_Time);

	jmp	_time64
time	ENDP
_TEXT	ENDS
; Function compile flags: /Ogtpy
; File C:\Program Files (x86)\Windows Kits\10\include\10.0.22621.0\ucrt\stdio.h
;	COMDAT printf
_TEXT	SEGMENT
_Format$ = 80
printf	PROC						; COMDAT

; 956  :     {

$LN6:
	mov	QWORD PTR [rsp+8], rcx
	mov	QWORD PTR [rsp+16], rdx
	mov	QWORD PTR [rsp+24], r8
	mov	QWORD PTR [rsp+32], r9
	push	rbx
	push	rsi
	push	rdi
	sub	rsp, 48					; 00000030H
	mov	rdi, rcx

; 957  :         int _Result;
; 958  :         va_list _ArgList;
; 959  :         __crt_va_start(_ArgList, _Format);

	lea	rsi, QWORD PTR _Format$[rsp+8]

; 960  :         _Result = _vfprintf_l(stdout, _Format, NULL, _ArgList);

	mov	ecx, 1
	call	__acrt_iob_func
	mov	rbx, rax

; 645  :         return __stdio_common_vfprintf(_CRT_INTERNAL_LOCAL_PRINTF_OPTIONS, _Stream, _Format, _Locale, _ArgList);

	call	__local_stdio_printf_options
	xor	r9d, r9d
	mov	QWORD PTR [rsp+32], rsi
	mov	r8, rdi
	mov	rdx, rbx
	mov	rcx, QWORD PTR [rax]
	call	__stdio_common_vfprintf

; 961  :         __crt_va_end(_ArgList);
; 962  :         return _Result;
; 963  :     }

	add	rsp, 48					; 00000030H
	pop	rdi
	pop	rsi
	pop	rbx
	ret	0
printf	ENDP
_TEXT	ENDS
; Function compile flags: /Ogtpy
; File C:\Program Files (x86)\Windows Kits\10\include\10.0.22621.0\ucrt\stdio.h
;	COMDAT _vfprintf_l
_TEXT	SEGMENT
_Stream$ = 64
_Format$ = 72
_Locale$ = 80
_ArgList$ = 88
_vfprintf_l PROC					; COMDAT

; 644  :     {

$LN4:
	mov	QWORD PTR [rsp+8], rbx
	mov	QWORD PTR [rsp+16], rbp
	mov	QWORD PTR [rsp+24], rsi
	push	rdi
	sub	rsp, 48					; 00000030H
	mov	rbx, r9
	mov	rdi, r8
	mov	rsi, rdx
	mov	rbp, rcx

; 645  :         return __stdio_common_vfprintf(_CRT_INTERNAL_LOCAL_PRINTF_OPTIONS, _Stream, _Format, _Locale, _ArgList);

	call	__local_stdio_printf_options
	mov	r9, rdi
	mov	QWORD PTR [rsp+32], rbx
	mov	r8, rsi
	mov	rdx, rbp
	mov	rcx, QWORD PTR [rax]
	call	__stdio_common_vfprintf

; 646  :     }

	mov	rbx, QWORD PTR [rsp+64]
	mov	rbp, QWORD PTR [rsp+72]
	mov	rsi, QWORD PTR [rsp+80]
	add	rsp, 48					; 00000030H
	pop	rdi
	ret	0
_vfprintf_l ENDP
_TEXT	ENDS
; Function compile flags: /Ogtpy
; File C:\Program Files (x86)\Windows Kits\10\include\10.0.22621.0\ucrt\corecrt_stdio_config.h
;	COMDAT __local_stdio_printf_options
_TEXT	SEGMENT
__local_stdio_printf_options PROC			; COMDAT

; 91   :         static unsigned __int64 _OptionsStorage;
; 92   :         return &_OptionsStorage;

	lea	rax, OFFSET FLAT:?_OptionsStorage@?1??__local_stdio_printf_options@@9@9 ; `__local_stdio_printf_options'::`2'::_OptionsStorage

; 93   :     }

	ret	0
__local_stdio_printf_options ENDP
_TEXT	ENDS
END
